; ModuleID = 'source-C-CXX/42/476.cpp'
source_filename = "source-C-CXX/42/476.cpp"
target datalayout = "e-m:e-p270:32:32-p271:32:32-p272:64:64-i64:64-f80:128-n8:16:32:64-S128"
target triple = "x86_64-pc-linux-gnu"

%"class.std::ios_base::Init" = type { i8 }
%"class.std::basic_istream" = type { i32 (...)**, i64, %"class.std::basic_ios" }
%"class.std::basic_ios" = type { %"class.std::ios_base", %"class.std::basic_ostream"*, i8, i8, %"class.std::basic_streambuf"*, %"class.std::ctype"*, %"class.std::num_put"*, %"class.std::num_get"* }
%"class.std::ios_base" = type { i32 (...)**, i64, i64, i32, i32, i32, %"struct.std::ios_base::_Callback_list"*, %"struct.std::ios_base::_Words", [8 x %"struct.std::ios_base::_Words"], i32, %"struct.std::ios_base::_Words"*, %"class.std::locale" }
%"struct.std::ios_base::_Callback_list" = type { %"struct.std::ios_base::_Callback_list"*, void (i32, %"class.std::ios_base"*, i32)*, i32, i32 }
%"struct.std::ios_base::_Words" = type { i8*, i64 }
%"class.std::locale" = type { %"class.std::locale::_Impl"* }
%"class.std::locale::_Impl" = type { i32, %"class.std::locale::facet"**, i64, %"class.std::locale::facet"**, i8** }
%"class.std::locale::facet" = type <{ i32 (...)**, i32, [4 x i8] }>
%"class.std::basic_ostream" = type { i32 (...)**, %"class.std::basic_ios" }
%"class.std::basic_streambuf" = type { i32 (...)**, i8*, i8*, i8*, i8*, i8*, i8*, %"class.std::locale" }
%"class.std::ctype" = type <{ %"class.std::locale::facet.base", [4 x i8], %struct.__locale_struct*, i8, [7 x i8], i32*, i32*, i16*, i8, [256 x i8], [256 x i8], i8, [6 x i8] }>
%"class.std::locale::facet.base" = type <{ i32 (...)**, i32 }>
%struct.__locale_struct = type { [13 x %struct.__locale_data*], i16*, i32*, i32*, [13 x i8*] }
%struct.__locale_data = type opaque
%"class.std::num_put" = type { %"class.std::locale::facet.base", [4 x i8] }
%"class.std::num_get" = type { %"class.std::locale::facet.base", [4 x i8] }

@_ZStL8__ioinit = internal global %"class.std::ios_base::Init" zeroinitializer, align 1
@__dso_handle = external hidden global i8
@_ZSt3cin = external global %"class.std::basic_istream", align 8
@_ZSt4cout = external global %"class.std::basic_ostream", align 8
@.str = private unnamed_addr constant [2 x i8] c" \00", align 1
@llvm.global_ctors = appending global [1 x { i32, void ()*, i8* }] [{ i32, void ()*, i8* } { i32 65535, void ()* @_GLOBAL__sub_I_476.cpp, i8* null }]

declare void @_ZNSt8ios_base4InitC1Ev(%"class.std::ios_base::Init"* nonnull align 1 dereferenceable(1)) unnamed_addr #0

; Function Attrs: nounwind
declare void @_ZNSt8ios_base4InitD1Ev(%"class.std::ios_base::Init"* nonnull align 1 dereferenceable(1)) unnamed_addr #1

; Function Attrs: nofree nounwind
declare i32 @__cxa_atexit(void (i8*)*, i8*, i8*) local_unnamed_addr #2

; Function Attrs: mustprogress norecurse sspstrong uwtable
define dso_local i32 @main() local_unnamed_addr #3 {
  %1 = alloca i32, align 4
  %2 = bitcast i32* %1 to i8*
  call void @llvm.lifetime.start.p0i8(i64 4, i8* nonnull %2) #7
  %3 = call nonnull align 8 dereferenceable(16) %"class.std::basic_istream"* @_ZNSirsERi(%"class.std::basic_istream"* nonnull align 8 dereferenceable(16) @_ZSt3cin, i32* nonnull align 4 dereferenceable(4) %1)
  %4 = load i32, i32* %1, align 4, !tbaa !5
  %5 = sitofp i32 %4 to double
  %6 = fmul double %5, 5.000000e-01
  %7 = fcmp ult double %6, 3.000000e+00
  br i1 %7, label %126, label %8

8:                                                ; preds = %0, %118
  %9 = phi i32 [ %125, %118 ], [ 0, %0 ]
  %10 = phi i32 [ %119, %118 ], [ %4, %0 ]
  %11 = phi i32 [ %120, %118 ], [ 3, %0 ]
  %12 = sub i32 -5, %9
  %13 = add i32 %9, 6
  %14 = add i32 %9, 1
  %15 = sub nsw i32 %10, %11
  %16 = and i32 %14, 1
  %17 = icmp eq i32 %9, 0
  br i1 %17, label %20, label %18

18:                                               ; preds = %8
  %19 = and i32 %14, -2
  br label %39

20:                                               ; preds = %39, %8
  %21 = phi i32 [ undef, %8 ], [ %51, %39 ]
  %22 = phi i32 [ 2, %8 ], [ %52, %39 ]
  %23 = phi i32 [ 0, %8 ], [ %51, %39 ]
  %24 = icmp eq i32 %16, 0
  br i1 %24, label %30, label %25

25:                                               ; preds = %20
  %26 = urem i32 %11, %22
  %27 = icmp eq i32 %26, 0
  %28 = zext i1 %27 to i32
  %29 = add nuw nsw i32 %23, %28
  br label %30

30:                                               ; preds = %20, %25
  %31 = phi i32 [ %21, %20 ], [ %29, %25 ]
  %32 = icmp sgt i32 %15, 2
  br i1 %32, label %33, label %81

33:                                               ; preds = %30
  %34 = add i32 %10, %12
  %35 = and i32 %34, 1
  %36 = icmp eq i32 %10, %13
  br i1 %36, label %71, label %37

37:                                               ; preds = %33
  %38 = and i32 %34, -2
  br label %55

39:                                               ; preds = %39, %18
  %40 = phi i32 [ 2, %18 ], [ %52, %39 ]
  %41 = phi i32 [ 0, %18 ], [ %51, %39 ]
  %42 = phi i32 [ %19, %18 ], [ %53, %39 ]
  %43 = urem i32 %11, %40
  %44 = icmp eq i32 %43, 0
  %45 = zext i1 %44 to i32
  %46 = add nuw nsw i32 %41, %45
  %47 = or i32 %40, 1
  %48 = urem i32 %11, %47
  %49 = icmp eq i32 %48, 0
  %50 = zext i1 %49 to i32
  %51 = add nuw nsw i32 %46, %50
  %52 = add nuw nsw i32 %40, 2
  %53 = add i32 %42, -2
  %54 = icmp eq i32 %53, 0
  br i1 %54, label %20, label %39, !llvm.loop !9

55:                                               ; preds = %55, %37
  %56 = phi i32 [ 2, %37 ], [ %68, %55 ]
  %57 = phi i32 [ %31, %37 ], [ %67, %55 ]
  %58 = phi i32 [ %38, %37 ], [ %69, %55 ]
  %59 = srem i32 %15, %56
  %60 = icmp eq i32 %59, 0
  %61 = zext i1 %60 to i32
  %62 = add nuw nsw i32 %57, %61
  %63 = or i32 %56, 1
  %64 = srem i32 %15, %63
  %65 = icmp eq i32 %64, 0
  %66 = zext i1 %65 to i32
  %67 = add nuw nsw i32 %62, %66
  %68 = add nuw nsw i32 %56, 2
  %69 = add i32 %58, -2
  %70 = icmp eq i32 %69, 0
  br i1 %70, label %71, label %55, !llvm.loop !11

71:                                               ; preds = %55, %33
  %72 = phi i32 [ undef, %33 ], [ %67, %55 ]
  %73 = phi i32 [ 2, %33 ], [ %68, %55 ]
  %74 = phi i32 [ %31, %33 ], [ %67, %55 ]
  %75 = icmp eq i32 %35, 0
  br i1 %75, label %81, label %76

76:                                               ; preds = %71
  %77 = srem i32 %15, %73
  %78 = icmp eq i32 %77, 0
  %79 = zext i1 %78 to i32
  %80 = add nuw nsw i32 %74, %79
  br label %81

81:                                               ; preds = %76, %71, %30
  %82 = phi i32 [ %31, %30 ], [ %72, %71 ], [ %80, %76 ]
  %83 = icmp eq i32 %82, 0
  br i1 %83, label %84, label %118

84:                                               ; preds = %81
  %85 = call nonnull align 8 dereferenceable(8) %"class.std::basic_ostream"* @_ZNSolsEi(%"class.std::basic_ostream"* nonnull align 8 dereferenceable(8) @_ZSt4cout, i32 %11)
  %86 = call nonnull align 8 dereferenceable(8) %"class.std::basic_ostream"* @_ZSt16__ostream_insertIcSt11char_traitsIcEERSt13basic_ostreamIT_T0_ES6_PKS3_l(%"class.std::basic_ostream"* nonnull align 8 dereferenceable(8) %85, i8* nonnull getelementptr inbounds ([2 x i8], [2 x i8]* @.str, i64 0, i64 0), i64 1)
  %87 = call nonnull align 8 dereferenceable(8) %"class.std::basic_ostream"* @_ZNSolsEi(%"class.std::basic_ostream"* nonnull align 8 dereferenceable(8) %85, i32 %15)
  %88 = bitcast %"class.std::basic_ostream"* %87 to i8**
  %89 = load i8*, i8** %88, align 8, !tbaa !12
  %90 = getelementptr i8, i8* %89, i64 -24
  %91 = bitcast i8* %90 to i64*
  %92 = load i64, i64* %91, align 8
  %93 = bitcast %"class.std::basic_ostream"* %87 to i8*
  %94 = add nsw i64 %92, 240
  %95 = getelementptr inbounds i8, i8* %93, i64 %94
  %96 = bitcast i8* %95 to %"class.std::ctype"**
  %97 = load %"class.std::ctype"*, %"class.std::ctype"** %96, align 8, !tbaa !14
  %98 = icmp eq %"class.std::ctype"* %97, null
  br i1 %98, label %99, label %100

99:                                               ; preds = %84
  call void @_ZSt16__throw_bad_castv() #8
  unreachable

100:                                              ; preds = %84
  %101 = getelementptr inbounds %"class.std::ctype", %"class.std::ctype"* %97, i64 0, i32 8
  %102 = load i8, i8* %101, align 8, !tbaa !18
  %103 = icmp eq i8 %102, 0
  br i1 %103, label %107, label %104

104:                                              ; preds = %100
  %105 = getelementptr inbounds %"class.std::ctype", %"class.std::ctype"* %97, i64 0, i32 9, i64 10
  %106 = load i8, i8* %105, align 1, !tbaa !20
  br label %113

107:                                              ; preds = %100
  call void @_ZNKSt5ctypeIcE13_M_widen_initEv(%"class.std::ctype"* nonnull align 8 dereferenceable(570) %97)
  %108 = bitcast %"class.std::ctype"* %97 to i8 (%"class.std::ctype"*, i8)***
  %109 = load i8 (%"class.std::ctype"*, i8)**, i8 (%"class.std::ctype"*, i8)*** %108, align 8, !tbaa !12
  %110 = getelementptr inbounds i8 (%"class.std::ctype"*, i8)*, i8 (%"class.std::ctype"*, i8)** %109, i64 6
  %111 = load i8 (%"class.std::ctype"*, i8)*, i8 (%"class.std::ctype"*, i8)** %110, align 8
  %112 = call signext i8 %111(%"class.std::ctype"* nonnull align 8 dereferenceable(570) %97, i8 signext 10)
  br label %113

113:                                              ; preds = %104, %107
  %114 = phi i8 [ %106, %104 ], [ %112, %107 ]
  %115 = call nonnull align 8 dereferenceable(8) %"class.std::basic_ostream"* @_ZNSo3putEc(%"class.std::basic_ostream"* nonnull align 8 dereferenceable(8) %87, i8 signext %114)
  %116 = call nonnull align 8 dereferenceable(8) %"class.std::basic_ostream"* @_ZNSo5flushEv(%"class.std::basic_ostream"* nonnull align 8 dereferenceable(8) %115)
  %117 = load i32, i32* %1, align 4, !tbaa !5
  br label %118

118:                                              ; preds = %81, %113
  %119 = phi i32 [ %10, %81 ], [ %117, %113 ]
  %120 = add nuw nsw i32 %11, 1
  %121 = sitofp i32 %120 to double
  %122 = sitofp i32 %119 to double
  %123 = fmul double %122, 5.000000e-01
  %124 = fcmp ult double %123, %121
  %125 = add i32 %9, 1
  br i1 %124, label %126, label %8, !llvm.loop !21

126:                                              ; preds = %118, %0
  call void @llvm.lifetime.end.p0i8(i64 4, i8* nonnull %2) #7
  ret i32 0
}

; Function Attrs: argmemonly mustprogress nofree nosync nounwind willreturn
declare void @llvm.lifetime.start.p0i8(i64 immarg, i8* nocapture) #4

declare nonnull align 8 dereferenceable(16) %"class.std::basic_istream"* @_ZNSirsERi(%"class.std::basic_istream"* nonnull align 8 dereferenceable(16), i32* nonnull align 4 dereferenceable(4)) local_unnamed_addr #0

declare nonnull align 8 dereferenceable(8) %"class.std::basic_ostream"* @_ZNSolsEi(%"class.std::basic_ostream"* nonnull align 8 dereferenceable(8), i32) local_unnamed_addr #0

; Function Attrs: argmemonly mustprogress nofree nosync nounwind willreturn
declare void @llvm.lifetime.end.p0i8(i64 immarg, i8* nocapture) #4

declare nonnull align 8 dereferenceable(8) %"class.std::basic_ostream"* @_ZSt16__ostream_insertIcSt11char_traitsIcEERSt13basic_ostreamIT_T0_ES6_PKS3_l(%"class.std::basic_ostream"* nonnull align 8 dereferenceable(8), i8*, i64) local_unnamed_addr #0

declare nonnull align 8 dereferenceable(8) %"class.std::basic_ostream"* @_ZNSo3putEc(%"class.std::basic_ostream"* nonnull align 8 dereferenceable(8), i8 signext) local_unnamed_addr #0

declare nonnull align 8 dereferenceable(8) %"class.std::basic_ostream"* @_ZNSo5flushEv(%"class.std::basic_ostream"* nonnull align 8 dereferenceable(8)) local_unnamed_addr #0

; Function Attrs: noreturn
declare void @_ZSt16__throw_bad_castv() local_unnamed_addr #5

declare void @_ZNKSt5ctypeIcE13_M_widen_initEv(%"class.std::ctype"* nonnull align 8 dereferenceable(570)) local_unnamed_addr #0

; Function Attrs: sspstrong uwtable
define internal void @_GLOBAL__sub_I_476.cpp() #6 section ".text.startup" {
  tail call void @_ZNSt8ios_base4InitC1Ev(%"class.std::ios_base::Init"* nonnull align 1 dereferenceable(1) @_ZStL8__ioinit)
  %1 = tail call i32 @__cxa_atexit(void (i8*)* bitcast (void (%"class.std::ios_base::Init"*)* @_ZNSt8ios_base4InitD1Ev to void (i8*)*), i8* getelementptr inbounds (%"class.std::ios_base::Init", %"class.std::ios_base::Init"* @_ZStL8__ioinit, i64 0, i32 0), i8* nonnull @__dso_handle) #7
  ret void
}


!llvm.module.flags = !{!0, !1, !2, !3}
!llvm.ident = !{!4}

!0 = !{i32 1, !"wchar_size", i32 4}
!1 = !{i32 7, !"PIC Level", i32 2}
!2 = !{i32 7, !"PIE Level", i32 2}
!3 = !{i32 7, !"uwtable", i32 1}
!4 = !{!"clang version 13.0.0"}
!5 = !{!6, !6, i64 0}
!6 = !{!"int", !7, i64 0}
!7 = !{!"omnipotent char", !8, i64 0}
!8 = !{!"Simple C++ TBAA"}
!9 = distinct !{!9, !10}
!10 = !{!"llvm.loop.mustprogress"}
!11 = distinct !{!11, !10}
!12 = !{!13, !13, i64 0}
!13 = !{!"vtable pointer", !8, i64 0}
!14 = !{!15, !16, i64 240}
!15 = !{!"_ZTSSt9basic_iosIcSt11char_traitsIcEE", !16, i64 216, !7, i64 224, !17, i64 225, !16, i64 232, !16, i64 240, !16, i64 248, !16, i64 256}
!16 = !{!"any pointer", !7, i64 0}
!17 = !{!"bool", !7, i64 0}
!18 = !{!19, !7, i64 56}
!19 = !{!"_ZTSSt5ctypeIcE", !16, i64 16, !17, i64 24, !16, i64 32, !16, i64 40, !16, i64 48, !7, i64 56, !7, i64 57, !7, i64 313, !7, i64 569}
!20 = !{!7, !7, i64 0}
!21 = distinct !{!21, !10}
